
Allocating common symbols
Common symbol       size              file

stack               0x8000            boot/boot.o
page_stack          0x4               mm/mm.o
kernel_page_table   0x4               mm/mm.o
kernel_page_dir     0x4               mm/mm.o
free_page_stack_table
                    0x4               mm/mm.o

Memory Configuration

Name             Origin             Length             Attributes
*default*        0x0000000000000000 0xffffffffffffffff

Linker script and memory map

LOAD boot/boot.o
LOAD console/console.o
LOAD console/kb.o
LOAD kernel/sys.o
LOAD kernel/timer.o
LOAD lib/printf.o
LOAD lib/string.o
LOAD mm/mem.o
LOAD mm/mm.o
LOAD init/main.o
LOAD i386/gdt.o
LOAD i386/gdt_s.o
LOAD i386/idt.o
LOAD i386/idt_s.o
LOAD i386/irq_s.o
LOAD i386/irqs.o
LOAD i386/isr_s.o
LOAD i386/isrs.o
LOAD libsupc++.a
LOAD libgcc.a
                0x0000000001000000                __physHigh = 0x1000000
                0x0000000080000000                __physVHigh = 0x80000000
                0x0000000000100000                __physLow = 0x100000
                0x0000000000100000                __phys = __physLow

.text           0x0000000000100000     0x3000 load address 0x0000000000100000
                0x0000000000100000                code = .
 *(.text)
 .text          0x0000000000100000       0x4b boot/boot.o
                0x000000000010001a                asm_to_c
                0x0000000000100000                _start
                0x0000000000100000                start
 *fill*         0x000000000010004b        0x1 00
 .text          0x000000000010004c      0x386 console/console.o
                0x00000000001000b5                putchar
                0x00000000001001c5                ECMA48
                0x0000000000100322                update_cursor
                0x00000000001003a2                init_video
                0x000000000010004c                scroll
                0x00000000001002e4                cls
 *fill*         0x00000000001003d2        0x2 00
 .text          0x00000000001003d4       0x51 console/kb.o
                0x00000000001003d4                keyboard_handler
                0x0000000000100409                init_kb
 *fill*         0x0000000000100425        0x3 00
 .text          0x0000000000100428       0x49 kernel/sys.o
                0x0000000000100428                inportb
                0x0000000000100467                abort
                0x0000000000100446                outportb
                0x000000000010046c                __assert
 *fill*         0x0000000000100471        0x3 00
 .text          0x0000000000100474       0xbe kernel/timer.o
                0x0000000000100474                timer_handler
                0x00000000001004b3                timer_phase
                0x000000000010048b                timer_install
                0x0000000000100513                timer_wait
 *fill*         0x0000000000100532        0x2 00
 .text          0x0000000000100534      0x19a lib/printf.o
                0x0000000000100534                printf
                0x000000000010068d                panic
 *fill*         0x00000000001006ce        0x2 00
 .text          0x00000000001006d0      0x190 lib/string.o
                0x00000000001006d0                itoa
                0x00000000001007f1                strcmp
                0x00000000001007b9                strlen
 .text          0x0000000000100860       0xa5 mm/mem.o
                0x00000000001008d0                memsetw
                0x0000000000100860                memcpy
                0x000000000010089c                memset
 *fill*         0x0000000000100905        0x3 00
 .text          0x0000000000100908      0x272 mm/mm.o
                0x0000000000100958                init_paging
                0x0000000000100908                free_page
                0x0000000000100b38                enable_paging
                0x000000000010094e                alloc_page
 *fill*         0x0000000000100b7a        0x2 00
 .text          0x0000000000100b7c      0x6a7 init/main.o
                0x0000000000100b7c                cmain
 *fill*         0x0000000000101223        0x1 00
 .text          0x0000000000101224      0x13d i386/gdt.o
                0x00000000001012bd                gdt_install
                0x0000000000101224                gdt_set_gate
 *fill*         0x0000000000101361        0xf 00
 .text          0x0000000000101370       0x1d i386/gdt_s.o
                0x0000000000101370                gdt_flush
 *fill*         0x000000000010138d        0x3 00
 .text          0x0000000000101390       0xa8 i386/idt.o
                0x00000000001013f6                idt_install
                0x0000000000101390                idt_set_gate
 *fill*         0x0000000000101438        0x8 00
 .text          0x0000000000101440        0x8 i386/idt_s.o
                0x0000000000101440                idt_load
 *fill*         0x0000000000101448        0x8 00
 .text          0x0000000000101450       0xcc i386/irq_s.o
                0x0000000000101464                _irq2
                0x0000000000101496                _irq7
                0x0000000000101450                _irq0
                0x0000000000101482                _irq5
                0x00000000001014dc                _irq14
                0x00000000001014a0                _irq8
                0x000000000010148c                _irq6
                0x00000000001014be                _irq11
                0x0000000000101478                _irq4
                0x00000000001014d2                _irq13
                0x00000000001014aa                _irq9
                0x00000000001014b4                _irq10
                0x00000000001014e6                _irq15
                0x000000000010145a                _irq1
                0x00000000001014c8                _irq12
                0x000000000010146e                _irq3
 .text          0x000000000010151c      0x41d i386/irqs.o
                0x000000000010152e                irq_uninstall_custom_handler
                0x0000000000101611                handle_coprocessor_math_fault
                0x000000000010151c                irq_install_custom_handler
                0x0000000000101627                irq_install
                0x0000000000101898                irq_handler
                0x0000000000101541                irq_remap
 *fill*         0x0000000000101939        0x7 00
 .text          0x0000000000101940      0x160 i386/isr_s.o
                0x00000000001019fc                _isr20
                0x0000000000101a2e                _isr25
                0x00000000001019ca                _isr15
                0x00000000001019a2                _isr10
                0x00000000001019e8                _isr18
                0x0000000000101a1a                _isr23
                0x000000000010197c                _isr6
                0x0000000000101940                _isr0
                0x0000000000101a06                _isr21
                0x0000000000101998                _isr9
                0x0000000000101a4c                _isr28
                0x0000000000101972                _isr5
                0x0000000000101a38                _isr26
                0x0000000000101a56                _isr29
                0x0000000000101a6a                _isr31
                0x000000000010194a                _isr1
                0x00000000001019aa                _isr11
                0x00000000001019d4                _isr16
                0x0000000000101954                _isr2
                0x00000000001019ba                _isr13
                0x0000000000101a24                _isr24
                0x0000000000101968                _isr4
                0x000000000010195e                _isr3
                0x0000000000101986                _isr7
                0x0000000000101a42                _isr27
                0x0000000000101a60                _isr30
                0x00000000001019f2                _isr19
                0x00000000001019c2                _isr14
                0x00000000001019de                _isr17
                0x00000000001019b2                _isr12
                0x0000000000101990                _isr8
                0x0000000000101a10                _isr22
 .text          0x0000000000101aa0      0x56f i386/isrs.o
                0x0000000000101f48                fault_handler
                0x0000000000101aa0                isr_install
                0x0000000000103000                . = ALIGN (0x1000)
 *fill*         0x000000000010200f      0xff1 00

.rodata         0x0000000000103000      0x5ef load address 0x0000000000103000
 .rodata        0x0000000000103000       0x30 console/console.o
 .rodata        0x0000000000103030       0x68 lib/printf.o
 .rodata        0x0000000000103098       0x53 mm/mm.o
 *fill*         0x00000000001030eb        0x1 00
 .rodata        0x00000000001030ec      0x32a init/main.o
 *fill*         0x0000000000103416        0x2 00
 .rodata        0x0000000000103418       0x3c i386/irqs.o
 .rodata        0x0000000000103454      0x19b i386/isrs.o

.data           0x0000000000103600      0xa00 load address 0x0000000000103600
                0x0000000000103600                data = .
 *(.data)
 .data          0x0000000000103600        0x1 console/console.o
                0x0000000000103600                ATTRIBUTE
 *fill*         0x0000000000103601       0x1f 00
 .data          0x0000000000103620       0x80 console/kb.o
                0x0000000000103620                KeyboardUs
 .data          0x00000000001036a0        0x8 init/main.o
                0x00000000001036a0                kernel_end_addr
                0x00000000001036a4                kernel_load_addr
 *fill*         0x00000000001036a8       0x18 00
 .data          0x00000000001036c0       0x80 i386/isrs.o
                0x00000000001036c0                exception_messages
                0x0000000000103740                __end_data = .
                0x0000000000104000                . = ALIGN (0x1000)
 *fill*         0x0000000000103740      0x8c0 00

.bss            0x0000000000104000     0x9000 load address 0x0000000000104000
                0x0000000000104000                bss = .
 *(.bss)
 .bss           0x0000000000104000        0xc console/console.o
                0x0000000000104000                xpos
                0x0000000000104004                ypos
                0x0000000000104008                video
 .bss           0x000000000010400c        0x4 kernel/timer.o
                0x000000000010400c                timer_ticks
 .bss           0x0000000000104010        0x4 lib/printf.o
                0x0000000000104010                printed_chars
 .bss           0x0000000000104014       0x1e i386/gdt.o
                0x0000000000104014                gdt
                0x000000000010402c                gdt_ptr
 *fill*         0x0000000000104032        0xe 00
 .bss           0x0000000000104040      0x806 i386/idt.o
                0x0000000000104840                idt_ptr
                0x0000000000104040                idt
 *fill*         0x0000000000104846       0x1a 00
 .bss           0x0000000000104860       0x40 i386/irqs.o
                0x0000000000104860                irq_routines
 *(COMMON)
 COMMON         0x00000000001048a0     0x8000 boot/boot.o
                0x00000000001048a0                stack
 COMMON         0x000000000010c8a0       0x10 mm/mm.o
                0x000000000010c8a0                page_stack
                0x000000000010c8a4                kernel_page_table
                0x000000000010c8a8                kernel_page_dir
                0x000000000010c8ac                free_page_stack_table
                0x000000000010c8b0                __end_bss = .
                0x000000000010d000                . = ALIGN (0x1000)
 *fill*         0x000000000010c8b0      0x750 00
                0x000000000010d000                __end = .

.rel.dyn        0x000000000010d000        0x0 load address 0x000000000010d000
OUTPUT(kernel.k elf32-i386)

.comment        0x0000000000000000      0x29e
 .comment       0x0000000000000000       0x2a console/console.o
 .comment       0x000000000000002a       0x2a console/kb.o
 .comment       0x0000000000000054       0x2a kernel/sys.o
 .comment       0x000000000000007e       0x2a kernel/timer.o
 .comment       0x00000000000000a8       0x2a lib/printf.o
 .comment       0x00000000000000d2       0x2a lib/string.o
 .comment       0x00000000000000fc       0x2a mm/mem.o
 .comment       0x0000000000000126       0x2a mm/mm.o
 .comment       0x0000000000000150       0x2a init/main.o
 .comment       0x000000000000017a       0x2a i386/gdt.o
 .comment       0x00000000000001a4       0x1f i386/gdt_s.o
 .comment       0x00000000000001c3       0x2a i386/idt.o
 .comment       0x00000000000001ed       0x1f i386/idt_s.o
 .comment       0x000000000000020c       0x1f i386/irq_s.o
 .comment       0x000000000000022b       0x2a i386/irqs.o
 .comment       0x0000000000000255       0x1f i386/isr_s.o
 .comment       0x0000000000000274       0x2a i386/isrs.o

.note.GNU-stack
                0x0000000000000000        0x0
